target datalayout = "e-m:e-p270:32:32-p271:32:32-p272:64:64-i64:64-i128:128-f80:128-n8:16:32:64-S128"
target triple = "x86_64-pc-linux-gnu"

%"class.std::__cxx11::basic_string" = type { %"struct.std::__cxx11::basic_string<char>::_Alloc_hider", i64, %union.anon }
%"struct.std::__cxx11::basic_string<char>::_Alloc_hider" = type { ptr }
%union.anon = type { i64, [8 x i8] }

; Function Attrs: alwaysinline mustprogress nounwind uwtable
define internal noundef signext i8 @_ZL9myislowerc(i8 noundef signext %0) #8 {
  %2 = alloca i8, align 1
  store i8 %0, ptr %2, align 1
  %3 = load i8, ptr %2, align 1
  %4 = sext i8 %3 to i32
  %5 = icmp sge i32 %4, 97
  br i1 %5, label %6, label %10

6:                                                ; preds = %1
  %7 = load i8, ptr %2, align 1
  %8 = sext i8 %7 to i32
  %9 = icmp sle i32 %8, 122
  br label %10

10:                                               ; preds = %6, %1
  %11 = phi i1 [ false, %1 ], [ %9, %6 ]
  %12 = zext i1 %11 to i8
  ret i8 %12
}

; Function Attrs: alwaysinline mustprogress uwtable
define internal noundef signext i8 @_ZL9mytoupperc(i8 noundef signext %0) #4 {
  %2 = alloca i8, align 1
  %3 = alloca i8, align 1
  store i8 %0, ptr %3, align 1
  %4 = load i8, ptr %3, align 1
  %5 = call noundef signext i8 @_ZL9myislowerc(i8 noundef signext %4)
  %6 = icmp ne i8 %5, 0
  br i1 %6, label %7, label %12

7:                                                ; preds = %1
  %8 = load i8, ptr %3, align 1
  %9 = sext i8 %8 to i32
  %10 = sub nsw i32 %9, 32
  %11 = trunc i32 %10 to i8
  store i8 %11, ptr %2, align 1
  br label %14

12:                                               ; preds = %1
  %13 = load i8, ptr %3, align 1
  store i8 %13, ptr %2, align 1
  br label %14

14:                                               ; preds = %12, %7
  %15 = load i8, ptr %2, align 1
  ret i8 %15
}

; Function Attrs: mustprogress nounwind uwtable
define available_externally noundef ptr @_ZNKSt7__cxx1112basic_stringIcSt11char_traitsIcESaIcEE7_M_dataEv(ptr noundef nonnull align 8 dereferenceable(32) %0) #2 align 2 {
  %2 = alloca ptr, align 8
  store ptr %0, ptr %2, align 8
  %3 = load ptr, ptr %2, align 8
  %4 = getelementptr inbounds nuw %"class.std::__cxx11::basic_string", ptr %3, i32 0, i32 0
  %5 = getelementptr inbounds nuw %"struct.std::__cxx11::basic_string<char>::_Alloc_hider", ptr %4, i32 0, i32 0
  %6 = load ptr, ptr %5, align 8
  ret ptr %6
}

; Function Attrs: mustprogress uwtable
define hidden noundef i32 @_ZN3ue23cmpEPKcS1_mb(ptr noundef %0, ptr noundef %1, i64 noundef %2, i1 noundef zeroext %3) #0 {
  %5 = alloca i32, align 4
  %6 = alloca ptr, align 8
  %7 = alloca ptr, align 8
  %8 = alloca i64, align 8
  %9 = alloca i8, align 1
  %10 = alloca ptr, align 8
  %11 = alloca i32, align 4
  store ptr %0, ptr %6, align 8
  store ptr %1, ptr %7, align 8
  store i64 %2, ptr %8, align 8
  %12 = zext i1 %3 to i8
  store i8 %12, ptr %9, align 1
  %13 = load i8, ptr %9, align 1, !range !5, !noundef !6
  %14 = trunc i8 %13 to i1
  br i1 %14, label %20, label %15

15:                                               ; preds = %4
  %16 = load ptr, ptr %6, align 8
  %17 = load ptr, ptr %7, align 8
  %18 = load i64, ptr %8, align 8
  %19 = call i32 @memcmp(ptr noundef %16, ptr noundef %17, i64 noundef %18) #18
  store i32 %19, ptr %5, align 4
  br label %49

20:                                               ; preds = %4
  call void @llvm.lifetime.start.p0(i64 8, ptr %10) #17
  %21 = load ptr, ptr %6, align 8
  %22 = load i64, ptr %8, align 8
  %23 = getelementptr inbounds nuw i8, ptr %21, i64 %22
  store ptr %23, ptr %10, align 8
  br label %24

24:                                               ; preds = %41, %20
  %25 = load ptr, ptr %6, align 8
  %26 = load ptr, ptr %10, align 8
  %27 = icmp ult ptr %25, %26
  br i1 %27, label %29, label %28

28:                                               ; preds = %24
  store i32 2, ptr %11, align 4
  br label %46

29:                                               ; preds = %24
  %30 = load ptr, ptr %6, align 8
  %31 = load i8, ptr %30, align 1
  %32 = call noundef signext i8 @_ZL9mytoupperc(i8 noundef signext %31)
  %33 = sext i8 %32 to i32
  %34 = load ptr, ptr %7, align 8
  %35 = load i8, ptr %34, align 1
  %36 = call noundef signext i8 @_ZL9mytoupperc(i8 noundef signext %35)
  %37 = sext i8 %36 to i32
  %38 = icmp ne i32 %33, %37
  br i1 %38, label %39, label %40

39:                                               ; preds = %29
  store i32 1, ptr %5, align 4
  store i32 1, ptr %11, align 4
  br label %46

40:                                               ; preds = %29
  br label %41

41:                                               ; preds = %40
  %42 = load ptr, ptr %6, align 8
  %43 = getelementptr inbounds nuw i8, ptr %42, i32 1
  store ptr %43, ptr %6, align 8
  %44 = load ptr, ptr %7, align 8
  %45 = getelementptr inbounds nuw i8, ptr %44, i32 1
  store ptr %45, ptr %7, align 8
  br label %24, !llvm.loop !10

46:                                               ; preds = %39, %28
  call void @llvm.lifetime.end.p0(i64 8, ptr %10) #17
  %47 = load i32, ptr %11, align 4
  switch i32 %47, label %51 [
    i32 2, label %48
    i32 1, label %49
  ]

48:                                               ; preds = %46
  store i32 0, ptr %5, align 4
  br label %49

49:                                               ; preds = %48, %46, %15
  %50 = load i32, ptr %5, align 4
  ret i32 %50

51:                                               ; preds = %46
  unreachable
}

; Function Attrs: mustprogress nounwind uwtable
define available_externally noundef ptr @_ZNKSt7__cxx1112basic_stringIcSt11char_traitsIcESaIcEE5c_strEv(ptr noundef nonnull align 8 dereferenceable(32) %0) #2 align 2 {
  %2 = alloca ptr, align 8
  store ptr %0, ptr %2, align 8
  %3 = load ptr, ptr %2, align 8
  %4 = call noundef ptr @_ZNKSt7__cxx1112basic_stringIcSt11char_traitsIcESaIcEE7_M_dataEv(ptr noundef nonnull align 8 dereferenceable(32) %3)
  ret ptr %4
}

; Function Attrs: mustprogress nounwind uwtable
define available_externally noundef i64 @_ZNKSt7__cxx1112basic_stringIcSt11char_traitsIcESaIcEE6lengthEv(ptr noundef nonnull align 8 dereferenceable(32) %0) #2 align 2 {
  %2 = alloca ptr, align 8
  store ptr %0, ptr %2, align 8
  %3 = load ptr, ptr %2, align 8
  %4 = getelementptr inbounds nuw %"class.std::__cxx11::basic_string", ptr %3, i32 0, i32 1
  %5 = load i64, ptr %4, align 8
  ret i64 %5
}

; Function Attrs: mustprogress uwtable
define hidden noundef i64 @_ZN3ue216maxStringOverlapERKNSt7__cxx1112basic_stringIcSt11char_traitsIcESaIcEEES7_b(ptr noundef nonnull align 8 dereferenceable(32) %0, ptr noundef nonnull align 8 dereferenceable(32) %1, i1 noundef zeroext %2) #0 {
  %4 = alloca i64, align 8
  %5 = alloca ptr, align 8
  %6 = alloca ptr, align 8
  %7 = alloca i8, align 1
  %8 = alloca i64, align 8
  %9 = alloca i64, align 8
  %10 = alloca ptr, align 8
  %11 = alloca ptr, align 8
  %12 = alloca ptr, align 8
  %13 = alloca i64, align 8
  %14 = alloca i32, align 4
  store ptr %0, ptr %5, align 8
  store ptr %1, ptr %6, align 8
  %15 = zext i1 %2 to i8
  store i8 %15, ptr %7, align 1
  call void @llvm.lifetime.start.p0(i64 8, ptr %8) #17
  %16 = load ptr, ptr %5, align 8
  %17 = call noundef i64 @_ZNKSt7__cxx1112basic_stringIcSt11char_traitsIcESaIcEE6lengthEv(ptr noundef nonnull align 8 dereferenceable(32) %16) #17
  store i64 %17, ptr %8, align 8
  call void @llvm.lifetime.start.p0(i64 8, ptr %9) #17
  %18 = load ptr, ptr %6, align 8
  %19 = call noundef i64 @_ZNKSt7__cxx1112basic_stringIcSt11char_traitsIcESaIcEE6lengthEv(ptr noundef nonnull align 8 dereferenceable(32) %18) #17
  store i64 %19, ptr %9, align 8
  call void @llvm.lifetime.start.p0(i64 8, ptr %10) #17
  %20 = load ptr, ptr %5, align 8
  %21 = call noundef ptr @_ZNKSt7__cxx1112basic_stringIcSt11char_traitsIcESaIcEE5c_strEv(ptr noundef nonnull align 8 dereferenceable(32) %20) #17
  store ptr %21, ptr %10, align 8
  call void @llvm.lifetime.start.p0(i64 8, ptr %11) #17
  %22 = load ptr, ptr %6, align 8
  %23 = call noundef ptr @_ZNKSt7__cxx1112basic_stringIcSt11char_traitsIcESaIcEE5c_strEv(ptr noundef nonnull align 8 dereferenceable(32) %22) #17
  store ptr %23, ptr %11, align 8
  call void @llvm.lifetime.start.p0(i64 8, ptr %12) #17
  %24 = load ptr, ptr %10, align 8
  %25 = load i64, ptr %8, align 8
  %26 = getelementptr inbounds nuw i8, ptr %24, i64 %25
  store ptr %26, ptr %12, align 8
  call void @llvm.lifetime.start.p0(i64 8, ptr %13) #17
  %27 = load i64, ptr %9, align 8
  store i64 %27, ptr %13, align 8
  br label %28

28:                                               ; preds = %48, %3
  %29 = load i64, ptr %13, align 8
  %30 = load i64, ptr %8, align 8
  %31 = icmp ugt i64 %29, %30
  br i1 %31, label %32, label %51

32:                                               ; preds = %28
  %33 = load ptr, ptr %10, align 8
  %34 = load ptr, ptr %11, align 8
  %35 = load i64, ptr %13, align 8
  %36 = getelementptr inbounds nuw i8, ptr %34, i64 %35
  %37 = load i64, ptr %8, align 8
  %38 = sub i64 0, %37
  %39 = getelementptr inbounds i8, ptr %36, i64 %38
  %40 = load i64, ptr %8, align 8
  %41 = load i8, ptr %7, align 1, !range !5, !noundef !6
  %42 = trunc i8 %41 to i1
  %43 = call noundef i32 @_ZN3ue23cmpEPKcS1_mb(ptr noundef %33, ptr noundef %39, i64 noundef %40, i1 noundef zeroext %42)
  %44 = icmp ne i32 %43, 0
  br i1 %44, label %47, label %45

45:                                               ; preds = %32
  %46 = load i64, ptr %13, align 8
  store i64 %46, ptr %4, align 8
  store i32 1, ptr %14, align 4
  br label %74

47:                                               ; preds = %32
  br label %48

48:                                               ; preds = %47
  %49 = load i64, ptr %13, align 8
  %50 = add i64 %49, -1
  store i64 %50, ptr %13, align 8
  br label %28, !llvm.loop !7

51:                                               ; preds = %28
  br label %52

52:                                               ; preds = %69, %51
  %53 = load i64, ptr %13, align 8
  %54 = icmp ne i64 %53, 0
  br i1 %54, label %55, label %66

55:                                               ; preds = %52
  %56 = load ptr, ptr %12, align 8
  %57 = load i64, ptr %13, align 8
  %58 = sub i64 0, %57
  %59 = getelementptr inbounds i8, ptr %56, i64 %58
  %60 = load ptr, ptr %11, align 8
  %61 = load i64, ptr %13, align 8
  %62 = load i8, ptr %7, align 1, !range !5, !noundef !6
  %63 = trunc i8 %62 to i1
  %64 = call noundef i32 @_ZN3ue23cmpEPKcS1_mb(ptr noundef %59, ptr noundef %60, i64 noundef %61, i1 noundef zeroext %63)
  %65 = icmp ne i32 %64, 0
  br label %66

66:                                               ; preds = %55, %52
  %67 = phi i1 [ false, %52 ], [ %65, %55 ]
  br i1 %67, label %68, label %72

68:                                               ; preds = %66
  br label %69

69:                                               ; preds = %68
  %70 = load i64, ptr %13, align 8
  %71 = add i64 %70, -1
  store i64 %71, ptr %13, align 8
  br label %52, !llvm.loop !9

72:                                               ; preds = %66
  %73 = load i64, ptr %13, align 8
  store i64 %73, ptr %4, align 8
  store i32 1, ptr %14, align 4
  br label %74

74:                                               ; preds = %72, %45
  call void @llvm.lifetime.end.p0(i64 8, ptr %13) #17
  call void @llvm.lifetime.end.p0(i64 8, ptr %12) #17
  call void @llvm.lifetime.end.p0(i64 8, ptr %11) #17
  call void @llvm.lifetime.end.p0(i64 8, ptr %10) #17
  call void @llvm.lifetime.end.p0(i64 8, ptr %9) #17
  call void @llvm.lifetime.end.p0(i64 8, ptr %8) #17
  %75 = load i64, ptr %4, align 8
  ret i64 %75
}