; Function Attrs: mustprogress nofree nounwind willreturn memory(read, inaccessiblemem: none) uwtable
define hidden noundef i64 @_ZN3ue216maxStringOverlapERKNSt7__cxx1112basic_stringIcSt11char_traitsIcESaIcEEES7_b(ptr noundef nonnull readonly align 8 captures(none) dereferenceable(32) %0, ptr noundef nonnull readonly align 8 captures(none) dereferenceable(32) %1, i1 noundef zeroext %2) local_unnamed_addr #2 {
  %4 = getelementptr inbounds nuw i8, ptr %0, i64 8
  %5 = load i64, ptr %4, align 8
  %6 = getelementptr inbounds nuw i8, ptr %1, i64 8
  %7 = load i64, ptr %6, align 8
  %8 = load ptr, ptr %0, align 8
  %9 = load ptr, ptr %1, align 8
  %10 = getelementptr inbounds nuw i8, ptr %8, i64 %5
  %11 = icmp ugt i64 %7, %5
  br i1 %11, label %.lr.ph, label %.preheader

.lr.ph:                                           ; preds = %3
  %12 = sub i64 0, %5
  %invariant.gep = getelementptr i8, ptr %9, i64 %12
  br i1 %2, label %.lr.ph.split.us, label %_ZN3ue23cmpEPKcS1_mb.exit

.lr.ph.split.us:                                  ; preds = %.lr.ph
  %.not1819.not.i = icmp eq i64 %5, 0
  br i1 %.not1819.not.i, label %.critedge, label %.lr.ph.i.preheader.us

.lr.ph.i.preheader.us:                            ; preds = %.lr.ph.split.us, %_ZN3ue23cmpEPKcS1_mb.exit.thread41.loopexit.us
  %.056.us = phi i64 [ %24, %_ZN3ue23cmpEPKcS1_mb.exit.thread41.loopexit.us ], [ %7, %.lr.ph.split.us ]
  %gep.us = getelementptr i8, ptr %invariant.gep, i64 %.056.us
  br label %.lr.ph.i.us

.lr.ph.i.us:                                      ; preds = %.lr.ph.i.preheader.us, %21
  %.01421.i.us = phi ptr [ %22, %21 ], [ %8, %.lr.ph.i.preheader.us ]
  %.01520.i.us = phi ptr [ %23, %21 ], [ %gep.us, %.lr.ph.i.preheader.us ]
  %13 = load i8, ptr %.01421.i.us, align 1
  %14 = add i8 %13, -123
  %15 = icmp ult i8 %14, -26
  %16 = add i8 %13, -32
  %.0.i17.i.us = select i1 %15, i8 %13, i8 %16
  %17 = load i8, ptr %.01520.i.us, align 1
  %18 = add i8 %17, -123
  %19 = icmp ult i8 %18, -26
  %20 = add i8 %17, -32
  %.0.i.i.us = select i1 %19, i8 %17, i8 %20
  %.not.i.us = icmp eq i8 %.0.i17.i.us, %.0.i.i.us
  br i1 %.not.i.us, label %21, label %_ZN3ue23cmpEPKcS1_mb.exit.thread41.loopexit.us

21:                                               ; preds = %.lr.ph.i.us
  %22 = getelementptr inbounds nuw i8, ptr %.01421.i.us, i64 1
  %23 = getelementptr inbounds nuw i8, ptr %.01520.i.us, i64 1
  %.not18.i.us = icmp ult ptr %22, %10
  br i1 %.not18.i.us, label %.lr.ph.i.us, label %.critedge, !llvm.loop !5

_ZN3ue23cmpEPKcS1_mb.exit.thread41.loopexit.us:   ; preds = %.lr.ph.i.us
  %24 = add i64 %.056.us, -1
  %25 = icmp ugt i64 %24, %5
  br i1 %25, label %.lr.ph.i.preheader.us, label %.preheader, !llvm.loop !7

.preheader:                                       ; preds = %_ZN3ue23cmpEPKcS1_mb.exit.thread41, %_ZN3ue23cmpEPKcS1_mb.exit.thread41.loopexit.us, %3
  %.0.lcssa = phi i64 [ %7, %3 ], [ %5, %_ZN3ue23cmpEPKcS1_mb.exit.thread41.loopexit.us ], [ %5, %_ZN3ue23cmpEPKcS1_mb.exit.thread41 ]
  %.not61 = icmp eq i64 %.0.lcssa, 0
  br i1 %.not61, label %.critedge, label %.lr.ph63

.lr.ph63:                                         ; preds = %.preheader
  br i1 %2, label %.lr.ph.i31.preheader.us, label %_ZN3ue23cmpEPKcS1_mb.exit38

.lr.ph.i31.preheader.us:                          ; preds = %.lr.ph63, %_ZN3ue23cmpEPKcS1_mb.exit38.thread46.loopexit.us
  %.162.us = phi i64 [ %39, %_ZN3ue23cmpEPKcS1_mb.exit38.thread46.loopexit.us ], [ %.0.lcssa, %.lr.ph63 ]
  %26 = sub i64 0, %.162.us
  %27 = getelementptr inbounds i8, ptr %10, i64 %26
  br label %.lr.ph.i31.us

.lr.ph.i31.us:                                    ; preds = %.lr.ph.i31.preheader.us, %36
  %.01421.i32.us = phi ptr [ %37, %36 ], [ %27, %.lr.ph.i31.preheader.us ]
  %.01520.i33.us = phi ptr [ %38, %36 ], [ %9, %.lr.ph.i31.preheader.us ]
  %28 = load i8, ptr %.01421.i32.us, align 1
  %29 = add i8 %28, -123
  %30 = icmp ult i8 %29, -26
  %31 = add i8 %28, -32
  %.0.i17.i34.us = select i1 %30, i8 %28, i8 %31
  %32 = load i8, ptr %.01520.i33.us, align 1
  %33 = add i8 %32, -123
  %34 = icmp ult i8 %33, -26
  %35 = add i8 %32, -32
  %.0.i.i35.us = select i1 %34, i8 %32, i8 %35
  %.not.i36.us = icmp eq i8 %.0.i17.i34.us, %.0.i.i35.us
  br i1 %.not.i36.us, label %36, label %_ZN3ue23cmpEPKcS1_mb.exit38.thread46.loopexit.us

36:                                               ; preds = %.lr.ph.i31.us
  %37 = getelementptr inbounds nuw i8, ptr %.01421.i32.us, i64 1
  %38 = getelementptr inbounds nuw i8, ptr %.01520.i33.us, i64 1
  %.not18.i37.us = icmp ult ptr %37, %10
  br i1 %.not18.i37.us, label %.lr.ph.i31.us, label %.critedge, !llvm.loop !5

_ZN3ue23cmpEPKcS1_mb.exit38.thread46.loopexit.us: ; preds = %.lr.ph.i31.us
  %39 = add i64 %.162.us, -1
  %.not.us = icmp eq i64 %39, 0
  br i1 %.not.us, label %.critedge, label %.lr.ph.i31.preheader.us, !llvm.loop !8

_ZN3ue23cmpEPKcS1_mb.exit:                        ; preds = %.lr.ph, %_ZN3ue23cmpEPKcS1_mb.exit.thread41
  %.056 = phi i64 [ %40, %_ZN3ue23cmpEPKcS1_mb.exit.thread41 ], [ %7, %.lr.ph ]
  %gep = getelementptr i8, ptr %invariant.gep, i64 %.056
  %bcmp49 = tail call i32 @bcmp(ptr %8, ptr nonnull %gep, i64 %5)
  %.not28 = icmp eq i32 %bcmp49, 0
  br i1 %.not28, label %.critedge, label %_ZN3ue23cmpEPKcS1_mb.exit.thread41

_ZN3ue23cmpEPKcS1_mb.exit.thread41:               ; preds = %_ZN3ue23cmpEPKcS1_mb.exit
  %40 = add i64 %.056, -1
  %41 = icmp ugt i64 %40, %5
  br i1 %41, label %_ZN3ue23cmpEPKcS1_mb.exit, label %.preheader, !llvm.loop !7

_ZN3ue23cmpEPKcS1_mb.exit38:                      ; preds = %.lr.ph63, %_ZN3ue23cmpEPKcS1_mb.exit38.thread46
  %.162 = phi i64 [ %44, %_ZN3ue23cmpEPKcS1_mb.exit38.thread46 ], [ %.0.lcssa, %.lr.ph63 ]
  %42 = sub i64 0, %.162
  %43 = getelementptr inbounds i8, ptr %10, i64 %42
  %bcmp = tail call i32 @bcmp(ptr nonnull %43, ptr %9, i64 %.162)
  %.not27 = icmp eq i32 %bcmp, 0
  br i1 %.not27, label %.critedge, label %_ZN3ue23cmpEPKcS1_mb.exit38.thread46

_ZN3ue23cmpEPKcS1_mb.exit38.thread46:             ; preds = %_ZN3ue23cmpEPKcS1_mb.exit38
  %44 = add i64 %.162, -1
  %.not = icmp eq i64 %44, 0
  br i1 %.not, label %.critedge, label %_ZN3ue23cmpEPKcS1_mb.exit38, !llvm.loop !8

.critedge:                                        ; preds = %_ZN3ue23cmpEPKcS1_mb.exit, %21, %_ZN3ue23cmpEPKcS1_mb.exit38.thread46, %_ZN3ue23cmpEPKcS1_mb.exit38, %_ZN3ue23cmpEPKcS1_mb.exit38.thread46.loopexit.us, %36, %.lr.ph.split.us, %.preheader
  %.025 = phi i64 [ 0, %.preheader ], [ %7, %.lr.ph.split.us ], [ %.162.us, %36 ], [ 0, %_ZN3ue23cmpEPKcS1_mb.exit38.thread46.loopexit.us ], [ 0, %_ZN3ue23cmpEPKcS1_mb.exit38.thread46 ], [ %.162, %_ZN3ue23cmpEPKcS1_mb.exit38 ], [ %.056.us, %21 ], [ %.056, %_ZN3ue23cmpEPKcS1_mb.exit ]
  ret i64 %.025
}